target datalayout = "e-m:e-p270:32:32-p271:32:32-p272:64:64-i64:64-i128:128-f80:128-n8:16:32:64-S128"
target triple = "x86_64-pc-linux-gnu"

%struct.ossl_ml_kem_key_st = type { ptr, ptr, ptr, ptr, ptr, ptr, ptr, ptr, ptr, ptr, ptr, ptr, ptr, i32, i32, [64 x i8], ptr }

; Function Attrs: nounwind uwtable
define internal i32 @encap(ptr noundef %0, ptr noundef %1, ptr noundef %2, ptr noundef %3, ptr noundef %4, ptr noundef %5) #0 {
  %7 = alloca ptr, align 8
  %8 = alloca ptr, align 8
  %9 = alloca ptr, align 8
  %10 = alloca ptr, align 8
  %11 = alloca ptr, align 8
  %12 = alloca ptr, align 8
  %13 = alloca [64 x i8], align 16
  %14 = alloca [64 x i8], align 16
  %15 = alloca ptr, align 8
  %16 = alloca i32, align 4
  store ptr %0, ptr %7, align 8, !tbaa !25
  store ptr %1, ptr %8, align 8, !tbaa !25
  store ptr %2, ptr %9, align 8, !tbaa !25
  store ptr %3, ptr %10, align 8, !tbaa !40
  store ptr %4, ptr %11, align 8, !tbaa !44
  store ptr %5, ptr %12, align 8, !tbaa !3
  call void @llvm.lifetime.start.p0(i64 64, ptr %13) #8
  call void @llvm.lifetime.start.p0(i64 64, ptr %14) #8
  call void @llvm.lifetime.start.p0(i64 8, ptr %15) #8
  %17 = getelementptr inbounds [64 x i8], ptr %14, i64 0, i64 0
  %18 = getelementptr inbounds i8, ptr %17, i64 32
  store ptr %18, ptr %15, align 8, !tbaa !25
  call void @llvm.lifetime.start.p0(i64 4, ptr %16) #8
  %19 = getelementptr inbounds [64 x i8], ptr %13, i64 0, i64 0
  %20 = load ptr, ptr %9, align 8, !tbaa !25
  call void @llvm.memcpy.p0.p0.i64(ptr align 16 %19, ptr align 1 %20, i64 32, i1 false)
  %21 = getelementptr inbounds [64 x i8], ptr %13, i64 0, i64 0
  %22 = getelementptr inbounds i8, ptr %21, i64 32
  %23 = load ptr, ptr %12, align 8, !tbaa !3
  %24 = getelementptr inbounds nuw %struct.ossl_ml_kem_key_st, ptr %23, i32 0, i32 7
  %25 = load ptr, ptr %24, align 8, !tbaa !35
  call void @llvm.memcpy.p0.p0.i64(ptr align 1 %22, ptr align 1 %25, i64 32, i1 false)
  %26 = getelementptr inbounds [64 x i8], ptr %14, i64 0, i64 0
  %27 = getelementptr inbounds [64 x i8], ptr %13, i64 0, i64 0
  %28 = load ptr, ptr %11, align 8, !tbaa !44
  %29 = load ptr, ptr %12, align 8, !tbaa !3
  %30 = call i32 @hash_g(ptr noundef %26, ptr noundef %27, i64 noundef 64, ptr noundef %28, ptr noundef %29)
  %31 = icmp ne i32 %30, 0
  br i1 %31, label %32, label %41

32:                                               ; preds = %6
  %33 = load ptr, ptr %7, align 8, !tbaa !25
  %34 = load ptr, ptr %9, align 8, !tbaa !25
  %35 = load ptr, ptr %15, align 8, !tbaa !25
  %36 = load ptr, ptr %10, align 8, !tbaa !40
  %37 = load ptr, ptr %11, align 8, !tbaa !44
  %38 = load ptr, ptr %12, align 8, !tbaa !3
  %39 = call i32 @encrypt_cpa(ptr noundef %33, ptr noundef %34, ptr noundef %35, ptr noundef %36, ptr noundef %37, ptr noundef %38)
  %40 = icmp ne i32 %39, 0
  br label %41

41:                                               ; preds = %32, %6
  %42 = phi i1 [ false, %6 ], [ %40, %32 ]
  %43 = zext i1 %42 to i32
  store i32 %43, ptr %16, align 4, !tbaa !23
  %44 = load i32, ptr %16, align 4, !tbaa !23
  %45 = icmp ne i32 %44, 0
  br i1 %45, label %46, label %49

46:                                               ; preds = %41
  %47 = load ptr, ptr %8, align 8, !tbaa !25
  %48 = getelementptr inbounds [64 x i8], ptr %14, i64 0, i64 0
  call void @llvm.memcpy.p0.p0.i64(ptr align 1 %47, ptr align 16 %48, i64 32, i1 false)
  br label %49

49:                                               ; preds = %46, %41
  %50 = getelementptr inbounds [64 x i8], ptr %13, i64 0, i64 0
  call void @OPENSSL_cleanse(ptr noundef %50, i64 noundef 64)
  %51 = load i32, ptr %16, align 4, !tbaa !23
  call void @llvm.lifetime.end.p0(i64 4, ptr %16) #8
  call void @llvm.lifetime.end.p0(i64 8, ptr %15) #8
  call void @llvm.lifetime.end.p0(i64 64, ptr %14) #8
  call void @llvm.lifetime.end.p0(i64 64, ptr %13) #8
  ret i32 %51
}