; Function Attrs: nounwind uwtable
define internal fastcc range(i32 0, 2) i32 @encap(ptr noundef nonnull writeonly captures(none) %0, ptr noundef nonnull writeonly captures(none) %1, ptr noundef nonnull readonly captures(none) %2, ptr noundef nonnull %3, ptr noundef nonnull %4, ptr noundef nonnull %5) unnamed_addr #0 {
  %7 = alloca [64 x i8], align 16
  %8 = alloca [64 x i8], align 16
  call void @llvm.lifetime.start.p0(i64 64, ptr nonnull %7) #13
  call void @llvm.lifetime.start.p0(i64 64, ptr nonnull %8) #13
  call void @llvm.memcpy.p0.p0.i64(ptr noundef nonnull align 16 dereferenceable(32) %7, ptr noundef nonnull align 1 dereferenceable(32) %2, i64 32, i1 false)
  %9 = getelementptr inbounds nuw i8, ptr %7, i64 32
  %10 = getelementptr inbounds nuw i8, ptr %5, i64 56
  %11 = load ptr, ptr %10, align 8, !tbaa !32
  call void @llvm.memcpy.p0.p0.i64(ptr noundef nonnull align 16 dereferenceable(32) %9, ptr noundef nonnull align 1 dereferenceable(32) %11, i64 32, i1 false)
  %12 = getelementptr i8, ptr %5, i64 40
  %.val = load ptr, ptr %12, align 8, !tbaa !24
  %13 = call fastcc i32 @hash_g(ptr noundef %8, ptr noundef %7, i64 noundef 64, ptr noundef %4, ptr %.val)
  %.not = icmp eq i32 %13, 0
  br i1 %.not, label %.thread, label %14

14:                                               ; preds = %6
  %15 = getelementptr inbounds nuw i8, ptr %8, i64 32
  %16 = call fastcc i32 @encrypt_cpa(ptr noundef %0, ptr noundef %2, ptr noundef %15, ptr noundef %3, ptr noundef %4, ptr noundef nonnull %5)
  %.not12 = icmp eq i32 %16, 0
  br i1 %.not12, label %.thread, label %17

17:                                               ; preds = %14
  call void @llvm.memcpy.p0.p0.i64(ptr noundef nonnull align 1 dereferenceable(32) %1, ptr noundef nonnull align 16 dereferenceable(32) %8, i64 32, i1 false)
  br label %.thread

.thread:                                          ; preds = %6, %17, %14
  %18 = phi i32 [ 1, %17 ], [ 0, %14 ], [ 0, %6 ]
  call void @OPENSSL_cleanse(ptr noundef nonnull %7, i64 noundef 64) #13
  call void @llvm.lifetime.end.p0(i64 64, ptr nonnull %8) #13
  call void @llvm.lifetime.end.p0(i64 64, ptr nonnull %7) #13
  ret i32 %18
}